; Function Attrs: mustprogress nounwind willreturn uwtable
define internal void @clf_destructor(ptr noundef captures(none) initializes((144, 152)) %0) #2 {
  %2 = getelementptr inbounds nuw i8, ptr %0, i64 144
  store ptr null, ptr %2, align 8, !tbaa !20
  %3 = getelementptr inbounds nuw i8, ptr %0, i64 152
  %4 = load ptr, ptr %3, align 8, !tbaa !23
  %.not = icmp eq ptr %4, null
  br i1 %.not, label %6, label %5

5:                                                ; preds = %1
  tail call void @free(ptr noundef nonnull %4) #15
  store ptr null, ptr %3, align 8, !tbaa !23
  br label %6

6:                                                ; preds = %5, %1
  ret void
}